target datalayout = "e-m:e-p270:32:32-p271:32:32-p272:64:64-i64:64-i128:128-f80:128-n8:16:32:64-S128"
target triple = "x86_64-pc-linux-gnu"

%struct.gs_part = type { ptr, i16, i32, ptr, i32, i32, ptr, i32, i32, ptr, ptr, i16, ptr }

; Function Attrs: nounwind uwtable
define internal void @_destroy_parts(ptr noundef %0) #0 {
  %2 = alloca ptr, align 8
  %3 = alloca i32, align 4
  %4 = alloca ptr, align 8
  store ptr %0, ptr %2, align 8
  call void @llvm.lifetime.start.p0(i64 4, ptr %3) #8
  call void @llvm.lifetime.start.p0(i64 8, ptr %4) #8
  %5 = load ptr, ptr %2, align 8
  store ptr %5, ptr %4, align 8
  %6 = load ptr, ptr %4, align 8
  %7 = getelementptr inbounds nuw %struct.gs_part, ptr %6, i32 0, i32 0
  call void @slurm_xfree(ptr noundef %7)
  store i32 0, ptr %3, align 4
  br label %8

8:                                                ; preds = %21, %1
  %9 = load i32, ptr %3, align 4
  %10 = load ptr, ptr %4, align 8
  %11 = getelementptr inbounds nuw %struct.gs_part, ptr %10, i32 0, i32 2
  %12 = load i32, ptr %11, align 4
  %13 = icmp ult i32 %9, %12
  br i1 %13, label %14, label %24

14:                                               ; preds = %8
  %15 = load ptr, ptr %4, align 8
  %16 = getelementptr inbounds nuw %struct.gs_part, ptr %15, i32 0, i32 3
  %17 = load ptr, ptr %16, align 8
  %18 = load i32, ptr %3, align 4
  %19 = sext i32 %18 to i64
  %20 = getelementptr inbounds ptr, ptr %17, i64 %19
  call void @slurm_xfree(ptr noundef %20)
  br label %21

21:                                               ; preds = %14
  %22 = load i32, ptr %3, align 4
  %23 = add nsw i32 %22, 1
  store i32 %23, ptr %3, align 4
  br label %8, !llvm.loop !21

24:                                               ; preds = %8
  %25 = load ptr, ptr %4, align 8
  %26 = getelementptr inbounds nuw %struct.gs_part, ptr %25, i32 0, i32 6
  call void @slurm_xfree(ptr noundef %26)
  br label %27

27:                                               ; preds = %24
  %28 = load ptr, ptr %4, align 8
  %29 = getelementptr inbounds nuw %struct.gs_part, ptr %28, i32 0, i32 9
  %30 = load ptr, ptr %29, align 8
  %31 = icmp ne ptr %30, null
  br i1 %31, label %32, label %35

32:                                               ; preds = %27
  %33 = load ptr, ptr %4, align 8
  %34 = getelementptr inbounds nuw %struct.gs_part, ptr %33, i32 0, i32 9
  call void @slurm_bit_free(ptr noundef %34)
  br label %35

35:                                               ; preds = %32, %27
  %36 = load ptr, ptr %4, align 8
  %37 = getelementptr inbounds nuw %struct.gs_part, ptr %36, i32 0, i32 9
  store ptr null, ptr %37, align 8
  br label %38

38:                                               ; preds = %35
  br label %39

39:                                               ; preds = %38
  %40 = load ptr, ptr %4, align 8
  %41 = getelementptr inbounds nuw %struct.gs_part, ptr %40, i32 0, i32 10
  call void @slurm_xfree(ptr noundef %41)
  %42 = load ptr, ptr %4, align 8
  %43 = getelementptr inbounds nuw %struct.gs_part, ptr %42, i32 0, i32 3
  call void @slurm_xfree(ptr noundef %43)
  call void @slurm_xfree(ptr noundef %4)
  call void @llvm.lifetime.end.p0(i64 8, ptr %4) #8
  call void @llvm.lifetime.end.p0(i64 4, ptr %3) #8
  ret void
}