; Function Attrs: nounwind uwtable
define internal void @_destroy_parts(ptr noundef %0) #0 {
  %2 = alloca ptr, align 8
  call void @llvm.lifetime.start.p0(i64 8, ptr nonnull %2) #8
  store ptr %0, ptr %2, align 8
  tail call void @slurm_xfree(ptr noundef %0) #8
  %3 = getelementptr inbounds nuw i8, ptr %0, i64 12
  %4 = load i32, ptr %3, align 4
  %.not4 = icmp eq i32 %4, 0
  br i1 %.not4, label %._crit_edge, label %.lr.ph

.lr.ph:                                           ; preds = %1
  %5 = getelementptr inbounds nuw i8, ptr %0, i64 16
  br label %6

6:                                                ; preds = %.lr.ph, %6
  %indvars.iv = phi i64 [ 0, %.lr.ph ], [ %indvars.iv.next, %6 ]
  %7 = load ptr, ptr %5, align 8
  %8 = getelementptr inbounds nuw ptr, ptr %7, i64 %indvars.iv
  tail call void @slurm_xfree(ptr noundef %8) #8
  %indvars.iv.next = add nuw nsw i64 %indvars.iv, 1
  %9 = load i32, ptr %3, align 4
  %10 = zext i32 %9 to i64
  %11 = icmp samesign ult i64 %indvars.iv.next, %10
  br i1 %11, label %6, label %._crit_edge, !llvm.loop !20

._crit_edge:                                      ; preds = %6, %1
  %12 = getelementptr inbounds nuw i8, ptr %0, i64 32
  tail call void @slurm_xfree(ptr noundef nonnull %12) #8
  %13 = getelementptr inbounds nuw i8, ptr %0, i64 48
  %14 = load ptr, ptr %13, align 8
  %.not = icmp eq ptr %14, null
  br i1 %.not, label %16, label %15

15:                                               ; preds = %._crit_edge
  tail call void @slurm_bit_free(ptr noundef nonnull %13) #8
  br label %16

16:                                               ; preds = %15, %._crit_edge
  store ptr null, ptr %13, align 8
  %17 = getelementptr inbounds nuw i8, ptr %0, i64 56
  tail call void @slurm_xfree(ptr noundef nonnull %17) #8
  %18 = getelementptr inbounds nuw i8, ptr %0, i64 16
  tail call void @slurm_xfree(ptr noundef nonnull %18) #8
  call void @slurm_xfree(ptr noundef nonnull %2) #8
  call void @llvm.lifetime.end.p0(i64 8, ptr nonnull %2) #8
  ret void
}